target datalayout = "e-m:e-p270:32:32-p271:32:32-p272:64:64-i64:64-i128:128-f80:128-n8:16:32:64-S128"
target triple = "x86_64-pc-linux-gnu"

%struct.jv = type { i8, i8, i16, i32, %union.anon }
%union.anon = type { ptr }

@.str.18 = private unnamed_addr constant [64 x i8] c"Modules must be named by relative paths using '/', not '\\' (%s)\00", align 1
@.str.19 = private unnamed_addr constant [2 x i8] c"/\00", align 1
@.str.20 = private unnamed_addr constant [3 x i8] c"..\00", align 1
@.str.21 = private unnamed_addr constant [70 x i8] c"Relative paths to modules may not traverse to parent directories (%s)\00", align 1
@.str.22 = private unnamed_addr constant [60 x i8] c"module names must not have equal consecutive components: %s\00", align 1

; Function Attrs: nounwind uwtable
define internal { i64, ptr } @validate_relpath(i64 %0, ptr %1) #0 {
  %3 = alloca %struct.jv, align 8
  %4 = alloca %struct.jv, align 8
  %5 = alloca ptr, align 8
  %6 = alloca %struct.jv, align 8
  %7 = alloca i32, align 4
  %8 = alloca %struct.jv, align 8
  %9 = alloca %struct.jv, align 8
  %10 = alloca %struct.jv, align 8
  %11 = alloca i32, align 4
  %12 = alloca %struct.jv, align 8
  %13 = alloca i32, align 4
  %14 = alloca i32, align 4
  %15 = alloca %struct.jv, align 8
  %16 = alloca %struct.jv, align 8
  %17 = alloca i1, align 1
  %18 = alloca %struct.jv, align 8
  %19 = alloca %struct.jv, align 8
  %20 = alloca %struct.jv, align 8
  %21 = alloca %struct.jv, align 8
  %22 = alloca %struct.jv, align 8
  %23 = alloca %struct.jv, align 8
  %24 = getelementptr inbounds nuw { i64, ptr }, ptr %4, i32 0, i32 0
  store i64 %0, ptr %24, align 8
  %25 = getelementptr inbounds nuw { i64, ptr }, ptr %4, i32 0, i32 1
  store ptr %1, ptr %25, align 8
  call void @llvm.lifetime.start.p0(i64 8, ptr %5) #8
  %26 = getelementptr inbounds nuw { i64, ptr }, ptr %4, i32 0, i32 0
  %27 = load i64, ptr %26, align 8
  %28 = getelementptr inbounds nuw { i64, ptr }, ptr %4, i32 0, i32 1
  %29 = load ptr, ptr %28, align 8
  %30 = call ptr @jv_string_value(i64 %27, ptr %29)
  store ptr %30, ptr %5, align 8, !tbaa !17
  %31 = load ptr, ptr %5, align 8, !tbaa !17
  %32 = call ptr @strchr(ptr noundef %31, i32 noundef 92) #9
  %33 = icmp ne ptr %32, null
  br i1 %33, label %34, label %54

34:                                               ; preds = %2
  %35 = load ptr, ptr %5, align 8, !tbaa !17
  %36 = call { i64, ptr } (ptr, ...) @jv_string_fmt(ptr noundef @.str.18, ptr noundef %35)
  %37 = getelementptr inbounds nuw { i64, ptr }, ptr %6, i32 0, i32 0
  %38 = extractvalue { i64, ptr } %36, 0
  store i64 %38, ptr %37, align 8
  %39 = getelementptr inbounds nuw { i64, ptr }, ptr %6, i32 0, i32 1
  %40 = extractvalue { i64, ptr } %36, 1
  store ptr %40, ptr %39, align 8
  %41 = getelementptr inbounds nuw { i64, ptr }, ptr %6, i32 0, i32 0
  %42 = load i64, ptr %41, align 8
  %43 = getelementptr inbounds nuw { i64, ptr }, ptr %6, i32 0, i32 1
  %44 = load ptr, ptr %43, align 8
  %45 = call { i64, ptr } @jv_invalid_with_msg(i64 %42, ptr %44)
  %46 = getelementptr inbounds nuw { i64, ptr }, ptr %3, i32 0, i32 0
  %47 = extractvalue { i64, ptr } %45, 0
  store i64 %47, ptr %46, align 8
  %48 = getelementptr inbounds nuw { i64, ptr }, ptr %3, i32 0, i32 1
  %49 = extractvalue { i64, ptr } %45, 1
  store ptr %49, ptr %48, align 8
  %50 = getelementptr inbounds nuw { i64, ptr }, ptr %4, i32 0, i32 0
  %51 = load i64, ptr %50, align 8
  %52 = getelementptr inbounds nuw { i64, ptr }, ptr %4, i32 0, i32 1
  %53 = load ptr, ptr %52, align 8
  call void @jv_free(i64 %51, ptr %53)
  store i32 1, ptr %7, align 4
  br label %261

54:                                               ; preds = %2
  call void @llvm.lifetime.start.p0(i64 16, ptr %8) #8
  %55 = getelementptr inbounds nuw { i64, ptr }, ptr %4, i32 0, i32 0
  %56 = load i64, ptr %55, align 8
  %57 = getelementptr inbounds nuw { i64, ptr }, ptr %4, i32 0, i32 1
  %58 = load ptr, ptr %57, align 8
  %59 = call { i64, ptr } @jv_copy(i64 %56, ptr %58)
  %60 = getelementptr inbounds nuw { i64, ptr }, ptr %9, i32 0, i32 0
  %61 = extractvalue { i64, ptr } %59, 0
  store i64 %61, ptr %60, align 8
  %62 = getelementptr inbounds nuw { i64, ptr }, ptr %9, i32 0, i32 1
  %63 = extractvalue { i64, ptr } %59, 1
  store ptr %63, ptr %62, align 8
  %64 = call { i64, ptr } @jv_string(ptr noundef @.str.19)
  %65 = getelementptr inbounds nuw { i64, ptr }, ptr %10, i32 0, i32 0
  %66 = extractvalue { i64, ptr } %64, 0
  store i64 %66, ptr %65, align 8
  %67 = getelementptr inbounds nuw { i64, ptr }, ptr %10, i32 0, i32 1
  %68 = extractvalue { i64, ptr } %64, 1
  store ptr %68, ptr %67, align 8
  %69 = getelementptr inbounds nuw { i64, ptr }, ptr %9, i32 0, i32 0
  %70 = load i64, ptr %69, align 8
  %71 = getelementptr inbounds nuw { i64, ptr }, ptr %9, i32 0, i32 1
  %72 = load ptr, ptr %71, align 8
  %73 = getelementptr inbounds nuw { i64, ptr }, ptr %10, i32 0, i32 0
  %74 = load i64, ptr %73, align 8
  %75 = getelementptr inbounds nuw { i64, ptr }, ptr %10, i32 0, i32 1
  %76 = load ptr, ptr %75, align 8
  %77 = call { i64, ptr } @jv_string_split(i64 %70, ptr %72, i64 %74, ptr %76)
  %78 = getelementptr inbounds nuw { i64, ptr }, ptr %8, i32 0, i32 0
  %79 = extractvalue { i64, ptr } %77, 0
  store i64 %79, ptr %78, align 8
  %80 = getelementptr inbounds nuw { i64, ptr }, ptr %8, i32 0, i32 1
  %81 = extractvalue { i64, ptr } %77, 1
  store ptr %81, ptr %80, align 8
  call void @llvm.lifetime.start.p0(i64 4, ptr %11) #8
  %82 = getelementptr inbounds nuw { i64, ptr }, ptr %8, i32 0, i32 0
  %83 = load i64, ptr %82, align 8
  %84 = getelementptr inbounds nuw { i64, ptr }, ptr %8, i32 0, i32 1
  %85 = load ptr, ptr %84, align 8
  %86 = call { i64, ptr } @jv_copy(i64 %83, ptr %85)
  %87 = getelementptr inbounds nuw { i64, ptr }, ptr %12, i32 0, i32 0
  %88 = extractvalue { i64, ptr } %86, 0
  store i64 %88, ptr %87, align 8
  %89 = getelementptr inbounds nuw { i64, ptr }, ptr %12, i32 0, i32 1
  %90 = extractvalue { i64, ptr } %86, 1
  store ptr %90, ptr %89, align 8
  %91 = getelementptr inbounds nuw { i64, ptr }, ptr %12, i32 0, i32 0
  %92 = load i64, ptr %91, align 8
  %93 = getelementptr inbounds nuw { i64, ptr }, ptr %12, i32 0, i32 1
  %94 = load ptr, ptr %93, align 8
  %95 = call i32 @jv_array_length(i64 %92, ptr %94)
  store i32 %95, ptr %11, align 4, !tbaa !13
  call void @llvm.lifetime.start.p0(i64 4, ptr %13) #8
  store i32 0, ptr %13, align 4, !tbaa !13
  call void @llvm.lifetime.start.p0(i64 4, ptr %14) #8
  store i32 1, ptr %14, align 4, !tbaa !13
  br label %96

96:                                               ; preds = %252, %54
  %97 = load i32, ptr %14, align 4, !tbaa !13
  %98 = icmp ne i32 %97, 0
  br i1 %98, label %100, label %99

99:                                               ; preds = %96
  store i32 2, ptr %7, align 4
  br label %253

100:                                              ; preds = %96
  call void @llvm.lifetime.start.p0(i64 16, ptr %15) #8
  br label %101

101:                                              ; preds = %246, %100
  %102 = load i32, ptr %13, align 4, !tbaa !13
  %103 = load i32, ptr %11, align 4, !tbaa !13
  %104 = icmp slt i32 %102, %103
  store i1 false, ptr %17, align 1
  br i1 %104, label %105, label %125

105:                                              ; preds = %101
  call void @llvm.lifetime.start.p0(i64 16, ptr %16) #8
  store i1 true, ptr %17, align 1
  %106 = getelementptr inbounds nuw { i64, ptr }, ptr %8, i32 0, i32 0
  %107 = load i64, ptr %106, align 8
  %108 = getelementptr inbounds nuw { i64, ptr }, ptr %8, i32 0, i32 1
  %109 = load ptr, ptr %108, align 8
  %110 = call { i64, ptr } @jv_copy(i64 %107, ptr %109)
  %111 = getelementptr inbounds nuw { i64, ptr }, ptr %18, i32 0, i32 0
  %112 = extractvalue { i64, ptr } %110, 0
  store i64 %112, ptr %111, align 8
  %113 = getelementptr inbounds nuw { i64, ptr }, ptr %18, i32 0, i32 1
  %114 = extractvalue { i64, ptr } %110, 1
  store ptr %114, ptr %113, align 8
  %115 = load i32, ptr %13, align 4, !tbaa !13
  %116 = getelementptr inbounds nuw { i64, ptr }, ptr %18, i32 0, i32 0
  %117 = load i64, ptr %116, align 8
  %118 = getelementptr inbounds nuw { i64, ptr }, ptr %18, i32 0, i32 1
  %119 = load ptr, ptr %118, align 8
  %120 = call { i64, ptr } @jv_array_get(i64 %117, ptr %119, i32 noundef %115)
  %121 = getelementptr inbounds nuw { i64, ptr }, ptr %16, i32 0, i32 0
  %122 = extractvalue { i64, ptr } %120, 0
  store i64 %122, ptr %121, align 8
  %123 = getelementptr inbounds nuw { i64, ptr }, ptr %16, i32 0, i32 1
  %124 = extractvalue { i64, ptr } %120, 1
  store ptr %124, ptr %123, align 8
  call void @llvm.memcpy.p0.p0.i64(ptr align 8 %15, ptr align 8 %16, i64 16, i1 false), !tbaa.struct !9
  call void @llvm.lifetime.end.p0(i64 16, ptr %16) #8
  br label %126

125:                                              ; preds = %101
  br label %126

126:                                              ; preds = %125, %105
  %127 = phi i32 [ 1, %105 ], [ 0, %125 ]
  %128 = icmp ne i32 %127, 0
  br i1 %128, label %130, label %129

129:                                              ; preds = %126
  store i32 5, ptr %7, align 4
  br label %249

130:                                              ; preds = %126
  %131 = getelementptr inbounds nuw { i64, ptr }, ptr %15, i32 0, i32 0
  %132 = load i64, ptr %131, align 8
  %133 = getelementptr inbounds nuw { i64, ptr }, ptr %15, i32 0, i32 1
  %134 = load ptr, ptr %133, align 8
  %135 = call ptr @jv_string_value(i64 %132, ptr %134)
  %136 = call i32 @strcmp(ptr noundef %135, ptr noundef @.str.20) #9
  %137 = icmp ne i32 %136, 0
  br i1 %137, label %166, label %138

138:                                              ; preds = %130
  %139 = getelementptr inbounds nuw { i64, ptr }, ptr %15, i32 0, i32 0
  %140 = load i64, ptr %139, align 8
  %141 = getelementptr inbounds nuw { i64, ptr }, ptr %15, i32 0, i32 1
  %142 = load ptr, ptr %141, align 8
  call void @jv_free(i64 %140, ptr %142)
  %143 = getelementptr inbounds nuw { i64, ptr }, ptr %8, i32 0, i32 0
  %144 = load i64, ptr %143, align 8
  %145 = getelementptr inbounds nuw { i64, ptr }, ptr %8, i32 0, i32 1
  %146 = load ptr, ptr %145, align 8
  call void @jv_free(i64 %144, ptr %146)
  %147 = load ptr, ptr %5, align 8, !tbaa !17
  %148 = call { i64, ptr } (ptr, ...) @jv_string_fmt(ptr noundef @.str.21, ptr noundef %147)
  %149 = getelementptr inbounds nuw { i64, ptr }, ptr %19, i32 0, i32 0
  %150 = extractvalue { i64, ptr } %148, 0
  store i64 %150, ptr %149, align 8
  %151 = getelementptr inbounds nuw { i64, ptr }, ptr %19, i32 0, i32 1
  %152 = extractvalue { i64, ptr } %148, 1
  store ptr %152, ptr %151, align 8
  %153 = getelementptr inbounds nuw { i64, ptr }, ptr %19, i32 0, i32 0
  %154 = load i64, ptr %153, align 8
  %155 = getelementptr inbounds nuw { i64, ptr }, ptr %19, i32 0, i32 1
  %156 = load ptr, ptr %155, align 8
  %157 = call { i64, ptr } @jv_invalid_with_msg(i64 %154, ptr %156)
  %158 = getelementptr inbounds nuw { i64, ptr }, ptr %3, i32 0, i32 0
  %159 = extractvalue { i64, ptr } %157, 0
  store i64 %159, ptr %158, align 8
  %160 = getelementptr inbounds nuw { i64, ptr }, ptr %3, i32 0, i32 1
  %161 = extractvalue { i64, ptr } %157, 1
  store ptr %161, ptr %160, align 8
  %162 = getelementptr inbounds nuw { i64, ptr }, ptr %4, i32 0, i32 0
  %163 = load i64, ptr %162, align 8
  %164 = getelementptr inbounds nuw { i64, ptr }, ptr %4, i32 0, i32 1
  %165 = load ptr, ptr %164, align 8
  call void @jv_free(i64 %163, ptr %165)
  store i32 1, ptr %7, align 4
  br label %249

166:                                              ; preds = %130
  %167 = load i32, ptr %13, align 4, !tbaa !13
  %168 = icmp sgt i32 %167, 0
  br i1 %168, label %169, label %241

169:                                              ; preds = %166
  %170 = getelementptr inbounds nuw { i64, ptr }, ptr %15, i32 0, i32 0
  %171 = load i64, ptr %170, align 8
  %172 = getelementptr inbounds nuw { i64, ptr }, ptr %15, i32 0, i32 1
  %173 = load ptr, ptr %172, align 8
  %174 = call { i64, ptr } @jv_copy(i64 %171, ptr %173)
  %175 = getelementptr inbounds nuw { i64, ptr }, ptr %20, i32 0, i32 0
  %176 = extractvalue { i64, ptr } %174, 0
  store i64 %176, ptr %175, align 8
  %177 = getelementptr inbounds nuw { i64, ptr }, ptr %20, i32 0, i32 1
  %178 = extractvalue { i64, ptr } %174, 1
  store ptr %178, ptr %177, align 8
  %179 = getelementptr inbounds nuw { i64, ptr }, ptr %8, i32 0, i32 0
  %180 = load i64, ptr %179, align 8
  %181 = getelementptr inbounds nuw { i64, ptr }, ptr %8, i32 0, i32 1
  %182 = load ptr, ptr %181, align 8
  %183 = call { i64, ptr } @jv_copy(i64 %180, ptr %182)
  %184 = getelementptr inbounds nuw { i64, ptr }, ptr %22, i32 0, i32 0
  %185 = extractvalue { i64, ptr } %183, 0
  store i64 %185, ptr %184, align 8
  %186 = getelementptr inbounds nuw { i64, ptr }, ptr %22, i32 0, i32 1
  %187 = extractvalue { i64, ptr } %183, 1
  store ptr %187, ptr %186, align 8
  %188 = load i32, ptr %13, align 4, !tbaa !13
  %189 = sub nsw i32 %188, 1
  %190 = getelementptr inbounds nuw { i64, ptr }, ptr %22, i32 0, i32 0
  %191 = load i64, ptr %190, align 8
  %192 = getelementptr inbounds nuw { i64, ptr }, ptr %22, i32 0, i32 1
  %193 = load ptr, ptr %192, align 8
  %194 = call { i64, ptr } @jv_array_get(i64 %191, ptr %193, i32 noundef %189)
  %195 = getelementptr inbounds nuw { i64, ptr }, ptr %21, i32 0, i32 0
  %196 = extractvalue { i64, ptr } %194, 0
  store i64 %196, ptr %195, align 8
  %197 = getelementptr inbounds nuw { i64, ptr }, ptr %21, i32 0, i32 1
  %198 = extractvalue { i64, ptr } %194, 1
  store ptr %198, ptr %197, align 8
  %199 = getelementptr inbounds nuw { i64, ptr }, ptr %20, i32 0, i32 0
  %200 = load i64, ptr %199, align 8
  %201 = getelementptr inbounds nuw { i64, ptr }, ptr %20, i32 0, i32 1
  %202 = load ptr, ptr %201, align 8
  %203 = getelementptr inbounds nuw { i64, ptr }, ptr %21, i32 0, i32 0
  %204 = load i64, ptr %203, align 8
  %205 = getelementptr inbounds nuw { i64, ptr }, ptr %21, i32 0, i32 1
  %206 = load ptr, ptr %205, align 8
  %207 = call i32 @jv_equal(i64 %200, ptr %202, i64 %204, ptr %206)
  %208 = icmp ne i32 %207, 0
  br i1 %208, label %209, label %241

209:                                              ; preds = %169
  %210 = getelementptr inbounds nuw { i64, ptr }, ptr %15, i32 0, i32 0
  %211 = load i64, ptr %210, align 8
  %212 = getelementptr inbounds nuw { i64, ptr }, ptr %15, i32 0, i32 1
  %213 = load ptr, ptr %212, align 8
  call void @jv_free(i64 %211, ptr %213)
  %214 = getelementptr inbounds nuw { i64, ptr }, ptr %8, i32 0, i32 0
  %215 = load i64, ptr %214, align 8
  %216 = getelementptr inbounds nuw { i64, ptr }, ptr %8, i32 0, i32 1
  %217 = load ptr, ptr %216, align 8
  call void @jv_free(i64 %215, ptr %217)
  %218 = getelementptr inbounds nuw { i64, ptr }, ptr %4, i32 0, i32 0
  %219 = load i64, ptr %218, align 8
  %220 = getelementptr inbounds nuw { i64, ptr }, ptr %4, i32 0, i32 1
  %221 = load ptr, ptr %220, align 8
  %222 = call ptr @jv_string_value(i64 %219, ptr %221)
  %223 = call { i64, ptr } (ptr, ...) @jv_string_fmt(ptr noundef @.str.22, ptr noundef %222)
  %224 = getelementptr inbounds nuw { i64, ptr }, ptr %23, i32 0, i32 0
  %225 = extractvalue { i64, ptr } %223, 0
  store i64 %225, ptr %224, align 8
  %226 = getelementptr inbounds nuw { i64, ptr }, ptr %23, i32 0, i32 1
  %227 = extractvalue { i64, ptr } %223, 1
  store ptr %227, ptr %226, align 8
  %228 = getelementptr inbounds nuw { i64, ptr }, ptr %23, i32 0, i32 0
  %229 = load i64, ptr %228, align 8
  %230 = getelementptr inbounds nuw { i64, ptr }, ptr %23, i32 0, i32 1
  %231 = load ptr, ptr %230, align 8
  %232 = call { i64, ptr } @jv_invalid_with_msg(i64 %229, ptr %231)
  %233 = getelementptr inbounds nuw { i64, ptr }, ptr %3, i32 0, i32 0
  %234 = extractvalue { i64, ptr } %232, 0
  store i64 %234, ptr %233, align 8
  %235 = getelementptr inbounds nuw { i64, ptr }, ptr %3, i32 0, i32 1
  %236 = extractvalue { i64, ptr } %232, 1
  store ptr %236, ptr %235, align 8
  %237 = getelementptr inbounds nuw { i64, ptr }, ptr %4, i32 0, i32 0
  %238 = load i64, ptr %237, align 8
  %239 = getelementptr inbounds nuw { i64, ptr }, ptr %4, i32 0, i32 1
  %240 = load ptr, ptr %239, align 8
  call void @jv_free(i64 %238, ptr %240)
  store i32 1, ptr %7, align 4
  br label %249

241:                                              ; preds = %169, %166
  %242 = getelementptr inbounds nuw { i64, ptr }, ptr %15, i32 0, i32 0
  %243 = load i64, ptr %242, align 8
  %244 = getelementptr inbounds nuw { i64, ptr }, ptr %15, i32 0, i32 1
  %245 = load ptr, ptr %244, align 8
  call void @jv_free(i64 %243, ptr %245)
  br label %246

246:                                              ; preds = %241
  %247 = load i32, ptr %13, align 4, !tbaa !13
  %248 = add nsw i32 %247, 1
  store i32 %248, ptr %13, align 4, !tbaa !13
  br label %101, !llvm.loop !22

249:                                              ; preds = %209, %138, %129
  call void @llvm.lifetime.end.p0(i64 16, ptr %15) #8
  %250 = load i32, ptr %7, align 4
  switch i32 %250, label %253 [
    i32 5, label %251
  ]

251:                                              ; preds = %249
  br label %252

252:                                              ; preds = %251
  store i32 0, ptr %14, align 4, !tbaa !13
  br label %96, !llvm.loop !23

253:                                              ; preds = %249, %99
  call void @llvm.lifetime.end.p0(i64 4, ptr %14) #8
  call void @llvm.lifetime.end.p0(i64 4, ptr %13) #8
  call void @llvm.lifetime.end.p0(i64 4, ptr %11) #8
  %254 = load i32, ptr %7, align 4
  switch i32 %254, label %260 [
    i32 2, label %255
  ]

255:                                              ; preds = %253
  %256 = getelementptr inbounds nuw { i64, ptr }, ptr %8, i32 0, i32 0
  %257 = load i64, ptr %256, align 8
  %258 = getelementptr inbounds nuw { i64, ptr }, ptr %8, i32 0, i32 1
  %259 = load ptr, ptr %258, align 8
  call void @jv_free(i64 %257, ptr %259)
  call void @llvm.memcpy.p0.p0.i64(ptr align 8 %3, ptr align 8 %4, i64 16, i1 false), !tbaa.struct !9
  store i32 1, ptr %7, align 4
  br label %260

260:                                              ; preds = %255, %253
  call void @llvm.lifetime.end.p0(i64 16, ptr %8) #8
  br label %261

261:                                              ; preds = %260, %34
  call void @llvm.lifetime.end.p0(i64 8, ptr %5) #8
  %262 = load { i64, ptr }, ptr %3, align 8
  ret { i64, ptr } %262
}