; Function Attrs: nounwind uwtable
define internal fastcc { i64, ptr } @validate_relpath(i64 %0, ptr %1) unnamed_addr #0 {
  %3 = tail call ptr @jv_string_value(i64 %0, ptr %1) #11
  %4 = tail call ptr @strchr(ptr noundef nonnull dereferenceable(1) %3, i32 noundef 92) #12
  %.not = icmp eq ptr %4, null
  br i1 %.not, label %.preheader, label %5

5:                                                ; preds = %2
  %6 = tail call { i64, ptr } (ptr, ...) @jv_string_fmt(ptr noundef nonnull @.str.18, ptr noundef nonnull %3) #11
  %7 = extractvalue { i64, ptr } %6, 0
  %8 = extractvalue { i64, ptr } %6, 1
  %9 = tail call { i64, ptr } @jv_invalid_with_msg(i64 %7, ptr %8) #11
  tail call void @jv_free(i64 %0, ptr %1) #11
  br label %63

.preheader:                                       ; preds = %2
  %10 = tail call { i64, ptr } @jv_copy(i64 %0, ptr %1) #11
  %11 = extractvalue { i64, ptr } %10, 0
  %12 = extractvalue { i64, ptr } %10, 1
  %13 = tail call { i64, ptr } @jv_string(ptr noundef nonnull @.str.19) #11
  %14 = extractvalue { i64, ptr } %13, 0
  %15 = extractvalue { i64, ptr } %13, 1
  %16 = tail call { i64, ptr } @jv_string_split(i64 %11, ptr %12, i64 %14, ptr %15) #11
  %17 = extractvalue { i64, ptr } %16, 0
  %18 = extractvalue { i64, ptr } %16, 1
  %19 = tail call { i64, ptr } @jv_copy(i64 %17, ptr %18) #11
  %20 = extractvalue { i64, ptr } %19, 0
  %21 = extractvalue { i64, ptr } %19, 1
  %22 = tail call i32 @jv_array_length(i64 %20, ptr %21) #11
  %.not69.not92 = icmp sgt i32 %22, 0
  br i1 %.not69.not92, label %sub_0, label %.thread83

sub_0:                                            ; preds = %.preheader, %59
  %.16593 = phi i32 [ %60, %59 ], [ 0, %.preheader ]
  %23 = tail call { i64, ptr } @jv_copy(i64 %17, ptr %18) #11
  %24 = extractvalue { i64, ptr } %23, 0
  %25 = extractvalue { i64, ptr } %23, 1
  %26 = tail call { i64, ptr } @jv_array_get(i64 %24, ptr %25, i32 noundef %.16593) #11
  %27 = extractvalue { i64, ptr } %26, 0
  %28 = extractvalue { i64, ptr } %26, 1
  %29 = tail call ptr @jv_string_value(i64 %27, ptr %28) #11
  %30 = load i8, ptr %29, align 1
  %.not95 = icmp eq i8 %30, 46
  br i1 %.not95, label %sub_1, label %.tail.thread

sub_1:                                            ; preds = %sub_0
  %31 = getelementptr inbounds nuw i8, ptr %29, i64 1
  %32 = load i8, ptr %31, align 1
  %.not96 = icmp eq i8 %32, 46
  br i1 %.not96, label %.tail, label %.tail.thread

.tail:                                            ; preds = %sub_1
  %33 = getelementptr inbounds nuw i8, ptr %29, i64 2
  %34 = load i8, ptr %33, align 1
  %35 = icmp eq i8 %34, 0
  br i1 %35, label %36, label %.tail.thread

36:                                               ; preds = %.tail
  tail call void @jv_free(i64 %27, ptr %28) #11
  tail call void @jv_free(i64 %17, ptr %18) #11
  %37 = tail call { i64, ptr } (ptr, ...) @jv_string_fmt(ptr noundef nonnull @.str.21, ptr noundef nonnull %3) #11
  %38 = extractvalue { i64, ptr } %37, 0
  %39 = extractvalue { i64, ptr } %37, 1
  %40 = tail call { i64, ptr } @jv_invalid_with_msg(i64 %38, ptr %39) #11
  tail call void @jv_free(i64 %0, ptr %1) #11
  br label %63

.tail.thread:                                     ; preds = %sub_1, %sub_0, %.tail
  %.not97 = icmp eq i32 %.16593, 0
  br i1 %.not97, label %59, label %41

41:                                               ; preds = %.tail.thread
  %42 = tail call { i64, ptr } @jv_copy(i64 %27, ptr %28) #11
  %43 = extractvalue { i64, ptr } %42, 0
  %44 = extractvalue { i64, ptr } %42, 1
  %45 = tail call { i64, ptr } @jv_copy(i64 %17, ptr %18) #11
  %46 = extractvalue { i64, ptr } %45, 0
  %47 = extractvalue { i64, ptr } %45, 1
  %48 = add nsw i32 %.16593, -1
  %49 = tail call { i64, ptr } @jv_array_get(i64 %46, ptr %47, i32 noundef %48) #11
  %50 = extractvalue { i64, ptr } %49, 0
  %51 = extractvalue { i64, ptr } %49, 1
  %52 = tail call i32 @jv_equal(i64 %43, ptr %44, i64 %50, ptr %51) #11
  %.not71 = icmp eq i32 %52, 0
  br i1 %.not71, label %59, label %53

53:                                               ; preds = %41
  tail call void @jv_free(i64 %27, ptr %28) #11
  tail call void @jv_free(i64 %17, ptr %18) #11
  %54 = tail call ptr @jv_string_value(i64 %0, ptr %1) #11
  %55 = tail call { i64, ptr } (ptr, ...) @jv_string_fmt(ptr noundef nonnull @.str.22, ptr noundef %54) #11
  %56 = extractvalue { i64, ptr } %55, 0
  %57 = extractvalue { i64, ptr } %55, 1
  %58 = tail call { i64, ptr } @jv_invalid_with_msg(i64 %56, ptr %57) #11
  tail call void @jv_free(i64 %0, ptr %1) #11
  br label %63

59:                                               ; preds = %41, %.tail.thread
  tail call void @jv_free(i64 %27, ptr %28) #11
  %60 = add nuw nsw i32 %.16593, 1
  %exitcond.not = icmp eq i32 %60, %22
  br i1 %exitcond.not, label %.thread83, label %sub_0, !llvm.loop !12

.thread83:                                        ; preds = %59, %.preheader
  tail call void @jv_free(i64 %17, ptr %18) #11
  %61 = insertvalue { i64, ptr } poison, i64 %0, 0
  %62 = insertvalue { i64, ptr } %61, ptr %1, 1
  br label %63

63:                                               ; preds = %.thread83, %53, %36, %5
  %.fca.1.insert.merged = phi { i64, ptr } [ %9, %5 ], [ %62, %.thread83 ], [ %40, %36 ], [ %58, %53 ]
  ret { i64, ptr } %.fca.1.insert.merged
}